target datalayout = "e-m:e-p270:32:32-p271:32:32-p272:64:64-i64:64-i128:128-f80:128-n8:16:32:64-S128"
target triple = "x86_64-pc-linux-gnu"

%class.FrameInformation = type { %class.QObject, %class.IDataPrintable, ptr, ptr, ptr, %struct.wtap_rec, %struct.Buffer }
%class.QObject = type { ptr, %class.QScopedPointer }
%class.QScopedPointer = type { ptr }
%class.IDataPrintable = type { ptr }
%struct.wtap_rec = type { i32, i32, i32, %struct.nstime_t, i32, %struct.nstime_t, i32, %union.anon, ptr, i32, %struct.Buffer }
%struct.nstime_t = type { i64, i32 }
%union.anon = type { %struct.wtap_packet_header }
%struct.wtap_packet_header = type { i32, i32, i32, i32, %union.wtap_pseudo_header }
%union.wtap_pseudo_header = type { %struct.erf_mc_phdr }
%struct.erf_mc_phdr = type { %struct.erf_phdr, [16 x %struct.erf_ehdr], %union.anon.1 }
%struct.erf_phdr = type { i64, i8, i8, i16, i16, i16 }
%struct.erf_ehdr = type { i64 }
%union.anon.1 = type { i32 }
%struct.Buffer = type { ptr, i64, i64, i64 }

@_ZTV16FrameInformation = external unnamed_addr constant { [15 x ptr], [5 x ptr] }, align 8

; Function Attrs: mustprogress nounwind uwtable
define linkonce_odr void @_ZN14IDataPrintableD2Ev(ptr noundef nonnull align 8 dereferenceable(8) %0) unnamed_addr #2 comdat align 2 {
  %2 = alloca ptr, align 8
  store ptr %0, ptr %2, align 8
  ret void
}

; Function Attrs: mustprogress nounwind uwtable
define void @_ZN16FrameInformationD2Ev(ptr noundef nonnull align 8 dereferenceable(360) %0) unnamed_addr #2 align 2 personality ptr @__gxx_personality_v0 {
  %2 = alloca ptr, align 8
  store ptr %0, ptr %2, align 8
  %3 = load ptr, ptr %2, align 8
  store ptr getelementptr inbounds ({ [15 x ptr], [5 x ptr] }, ptr @_ZTV16FrameInformation, i32 0, i32 0, i32 2), ptr %3, align 8
  %4 = getelementptr inbounds i8, ptr %3, i64 16
  store ptr getelementptr inbounds ({ [15 x ptr], [5 x ptr] }, ptr @_ZTV16FrameInformation, i32 0, i32 1, i32 2), ptr %4, align 8
  %5 = getelementptr inbounds %class.FrameInformation, ptr %3, i32 0, i32 4
  %6 = load ptr, ptr %5, align 8
  %7 = icmp ne ptr %6, null
  br i1 %7, label %8, label %15

8:                                                ; preds = %1
  %9 = getelementptr inbounds %class.FrameInformation, ptr %3, i32 0, i32 4
  %10 = load ptr, ptr %9, align 8
  invoke void @epan_dissect_cleanup(ptr noundef %10)
          to label %11 unwind label %21

11:                                               ; preds = %8
  %12 = getelementptr inbounds %class.FrameInformation, ptr %3, i32 0, i32 4
  %13 = load ptr, ptr %12, align 8
  invoke void @g_free(ptr noundef %13)
          to label %14 unwind label %21

14:                                               ; preds = %11
  br label %15

15:                                               ; preds = %14, %1
  %16 = getelementptr inbounds %class.FrameInformation, ptr %3, i32 0, i32 5
  invoke void @wtap_rec_cleanup(ptr noundef %16)
          to label %17 unwind label %21

17:                                               ; preds = %15
  %18 = getelementptr inbounds %class.FrameInformation, ptr %3, i32 0, i32 6
  invoke void @ws_buffer_free(ptr noundef %18)
          to label %19 unwind label %21

19:                                               ; preds = %17
  %20 = getelementptr inbounds i8, ptr %3, i64 16
  call void @_ZN14IDataPrintableD2Ev(ptr noundef nonnull align 8 dereferenceable(8) %20) #10
  call void @_ZN7QObjectD2Ev(ptr noundef nonnull align 8 dereferenceable(16) %3) #10
  ret void

21:                                               ; preds = %17, %15, %11, %8
  %22 = landingpad { ptr, i32 }
          catch ptr null
  %23 = extractvalue { ptr, i32 } %22, 0
  call void @__clang_call_terminate(ptr %23) #12
  unreachable
}