; Function Attrs: mustprogress nounwind uwtable
define void @_ZN16FrameInformationD2Ev(ptr noundef nonnull align 8 dereferenceable(360) %0) unnamed_addr #4 align 2 personality ptr @__gxx_personality_v0 {
  store ptr getelementptr inbounds ({ [15 x ptr], [5 x ptr] }, ptr @_ZTV16FrameInformation, i64 0, i32 0, i64 2), ptr %0, align 8
  %2 = getelementptr inbounds i8, ptr %0, i64 16
  store ptr getelementptr inbounds ({ [15 x ptr], [5 x ptr] }, ptr @_ZTV16FrameInformation, i64 0, i32 1, i64 2), ptr %2, align 8
  %3 = getelementptr inbounds i8, ptr %0, i64 40
  %4 = load ptr, ptr %3, align 8
  %.not = icmp eq ptr %4, null
  br i1 %.not, label %8, label %5

5:                                                ; preds = %1
  invoke void @epan_dissect_cleanup(ptr noundef nonnull %4)
          to label %6 unwind label %13

6:                                                ; preds = %5
  %7 = load ptr, ptr %3, align 8
  invoke void @g_free(ptr noundef %7)
          to label %8 unwind label %13

8:                                                ; preds = %6, %1
  %9 = getelementptr inbounds i8, ptr %0, i64 48
  invoke void @wtap_rec_cleanup(ptr noundef nonnull %9)
          to label %10 unwind label %13

10:                                               ; preds = %8
  %11 = getelementptr inbounds i8, ptr %0, i64 328
  invoke void @ws_buffer_free(ptr noundef nonnull %11)
          to label %12 unwind label %13

12:                                               ; preds = %10
  tail call void @_ZN7QObjectD2Ev(ptr noundef nonnull align 8 dereferenceable(16) %0) #13
  ret void

13:                                               ; preds = %10, %8, %6, %5
  %14 = landingpad { ptr, i32 }
          catch ptr null
  %15 = extractvalue { ptr, i32 } %14, 0
  tail call void @__clang_call_terminate(ptr %15) #15
  unreachable
}